target datalayout = "e-m:e-p270:32:32-p271:32:32-p272:64:64-i64:64-i128:128-f80:128-n8:16:32:64-S128"
target triple = "x86_64-pc-linux-gnu"

%struct.strvec = type { ptr, i64, i64 }
%struct.strbuf = type { i64, i64, ptr }
%struct.diff_options = type { ptr, ptr, i32, i32, ptr, i32, ptr, i64, i64, ptr, ptr, ptr, ptr, %struct.diff_flags, i32, i32, i32, i32, i32, i32, i32, i32, i32, i32, i32, i32, i32, i32, i32, i32, i32, i32, i32, i32, i32, i32, ptr, i32, ptr, i32, i32, ptr, i64, i64, i32, i32, i32, i32, ptr, i32, i32, ptr, i32, i32, ptr, ptr, i32, [3 x i8], %struct.pathspec, ptr, ptr, ptr, ptr, ptr, ptr, ptr, ptr, i32, ptr, i32, i32, ptr, ptr, i32 }
%struct.diff_flags = type { i32, i32, i32, i32, i32, i32, i32, i32, i32, i32, i32, i32, i32, i32, i32, i32, i32, i32, i32, i32, i32, i32, i32, i32, i32, i32, i32, i32, i32, i32, i32, i32, i32, i32, i32 }
%struct.pathspec = type { i32, i8, i32, i32, ptr }
%struct.git_graph = type { ptr, ptr, i32, i32, i32, i32, i32, i32, i32, i32, i32, i32, i32, i32, i32, i32, ptr, ptr, ptr, ptr, i16, %struct.strbuf }
%struct.rev_info = type { ptr, %struct.object_array, ptr, %struct.object_array, %struct.rev_cmdline_info, %struct.list_objects_filter_options, %struct.ref_exclusions, ptr, ptr, ptr, %struct.pathspec, i32, i32, i32, i32, i64, i32, i32, %struct.date_mode, i32, i32, i32, i32, ptr, i32, i32, ptr, ptr, i32, ptr, ptr, %struct.ident_split, ptr, i32, ptr, ptr, ptr, i32, i32, i32, ptr, %struct.grep_opt, ptr, i32, i32, i64, i64, i64, i32, i32, ptr, ptr, ptr, %struct.diff_options, %struct.diff_options, ptr, %struct.decoration, %struct.decoration, %struct.decoration, %struct.display_notes_opt, ptr, ptr, ptr, ptr, ptr, i32, ptr, i32, i32, i32, %struct.decoration, ptr, ptr, ptr, ptr, ptr, ptr, ptr, i32, ptr, i32, ptr, %struct.oidset }
%struct.object_array = type { i32, i32, ptr }
%struct.rev_cmdline_info = type { i32, i32, ptr }
%struct.list_objects_filter_options = type { %struct.strbuf, i32, i8, ptr, i64, i64, i32, i64, i64, ptr }
%struct.ref_exclusions = type { %struct.string_list, %struct.strvec, i8 }
%struct.string_list = type { ptr, i64, i64, i8, ptr }
%struct.date_mode = type { i32, i32, ptr }
%struct.ident_split = type { ptr, ptr, ptr, ptr, ptr, ptr, ptr, ptr }
%struct.grep_opt = type { ptr, ptr, ptr, ptr, ptr, ptr, i32, i32, i32, i32, i32, i32, i32, i32, i32, i32, i32, i32, i32, i32, i32, i32, i32, i32, i32, i32, i32, i32, i32, i32, i32, i32, [9 x [75 x i8]], i32, i32, i32, i32, i32, i32, i32, ptr, ptr, ptr }
%struct.display_notes_opt = type { i32, %struct.string_list }
%struct.decoration = type { ptr, i32, i32, ptr }
%struct.oidset = type { %struct.kh_oid_set }
%struct.kh_oid_set = type { i32, i32, i32, i32, ptr, ptr, ptr }

@column_colors = internal global ptr null, align 8
@column_colors_max = internal global i16 0, align 2
@.str = private unnamed_addr constant [16 x i8] c"log.graphcolors\00", align 1
@column_colors_ansi = external global [0 x ptr], align 8
@column_colors_ansi_max = external constant i32, align 4
@graph_init.custom_colors = internal global %struct.strvec { ptr @empty_strvec, i64 0, i64 0 }, align 8
@.str.1 = private unnamed_addr constant [48 x i8] c"ignored invalid color '%.*s' in log.graphColors\00", align 1
@.str.2 = private unnamed_addr constant [4 x i8] c"\1B[m\00", align 1
@.str.3 = private unnamed_addr constant [1 x i8] zeroinitializer, align 1
@git_gettext_enabled = external global i32, align 4
@.str.4 = private unnamed_addr constant [27 x i8] c"size_t overflow: %lu * %lu\00", align 1

; Function Attrs: inlinehint nounwind uwtable
define internal ptr @_(ptr noundef %0) #4 {
  %2 = alloca ptr, align 8
  %3 = alloca ptr, align 8
  store ptr %0, ptr %3, align 8, !tbaa !74
  %4 = load ptr, ptr %3, align 8, !tbaa !74
  %5 = load i8, ptr %4, align 1, !tbaa !134
  %6 = icmp ne i8 %5, 0
  br i1 %6, label %8, label %7

7:                                                ; preds = %1
  store ptr @.str.3, ptr %2, align 8
  br label %16

8:                                                ; preds = %1
  %9 = load i32, ptr @git_gettext_enabled, align 4, !tbaa !73
  %10 = icmp ne i32 %9, 0
  br i1 %10, label %13, label %11

11:                                               ; preds = %8
  %12 = load ptr, ptr %3, align 8, !tbaa !74
  store ptr %12, ptr %2, align 8
  br label %16

13:                                               ; preds = %8
  %14 = load ptr, ptr %3, align 8, !tbaa !74
  %15 = call ptr @dcgettext(ptr noundef null, ptr noundef %14, i32 noundef 5) #8
  store ptr %15, ptr %2, align 8
  br label %16

16:                                               ; preds = %13, %11, %7
  %17 = load ptr, ptr %2, align 8
  ret ptr %17
}

; Function Attrs: inlinehint nounwind uwtable
define internal i64 @st_mult(i64 noundef %0, i64 noundef %1) #4 {
  %3 = alloca i64, align 8
  %4 = alloca i64, align 8
  store i64 %0, ptr %3, align 8, !tbaa !103
  store i64 %1, ptr %4, align 8, !tbaa !103
  %5 = load i64, ptr %3, align 8, !tbaa !103
  %6 = icmp ne i64 %5, 0
  br i1 %6, label %7, label %15

7:                                                ; preds = %2
  %8 = load i64, ptr %4, align 8, !tbaa !103
  %9 = load i64, ptr %3, align 8, !tbaa !103
  %10 = udiv i64 -1, %9
  %11 = icmp ugt i64 %8, %10
  br i1 %11, label %12, label %15

12:                                               ; preds = %7
  %13 = load i64, ptr %3, align 8, !tbaa !103
  %14 = load i64, ptr %4, align 8, !tbaa !103
  call void (ptr, ...) @die(ptr noundef @.str.4, i64 noundef %13, i64 noundef %14) #10
  unreachable

15:                                               ; preds = %7, %2
  %16 = load i64, ptr %3, align 8, !tbaa !103
  %17 = load i64, ptr %4, align 8, !tbaa !103
  %18 = mul i64 %16, %17
  ret i64 %18
}

; Function Attrs: nounwind uwtable
define internal void @parse_graph_colors_config(ptr noundef %0, ptr noundef %1) #0 {
  %3 = alloca ptr, align 8
  %4 = alloca ptr, align 8
  %5 = alloca ptr, align 8
  %6 = alloca ptr, align 8
  %7 = alloca ptr, align 8
  %8 = alloca [75 x i8], align 16
  store ptr %0, ptr %3, align 8, !tbaa !99
  store ptr %1, ptr %4, align 8, !tbaa !74
  call void @llvm.lifetime.start.p0(i64 8, ptr %5) #8
  call void @llvm.lifetime.start.p0(i64 8, ptr %6) #8
  %9 = load ptr, ptr %4, align 8, !tbaa !74
  store ptr %9, ptr %6, align 8, !tbaa !74
  %10 = load ptr, ptr %4, align 8, !tbaa !74
  %11 = load ptr, ptr %4, align 8, !tbaa !74
  %12 = call i64 @strlen(ptr noundef %11) #9
  %13 = getelementptr inbounds nuw i8, ptr %10, i64 %12
  store ptr %13, ptr %5, align 8, !tbaa !74
  br label %14

14:                                               ; preds = %44, %2
  %15 = load ptr, ptr %6, align 8, !tbaa !74
  %16 = load ptr, ptr %5, align 8, !tbaa !74
  %17 = icmp ult ptr %15, %16
  br i1 %17, label %18, label %47

18:                                               ; preds = %14
  call void @llvm.lifetime.start.p0(i64 8, ptr %7) #8
  %19 = load ptr, ptr %6, align 8, !tbaa !74
  %20 = call ptr @strchrnul(ptr noundef %19, i32 noundef 44) #9
  store ptr %20, ptr %7, align 8, !tbaa !74
  call void @llvm.lifetime.start.p0(i64 75, ptr %8) #8
  %21 = load ptr, ptr %6, align 8, !tbaa !74
  %22 = load ptr, ptr %7, align 8, !tbaa !74
  %23 = load ptr, ptr %6, align 8, !tbaa !74
  %24 = ptrtoint ptr %22 to i64
  %25 = ptrtoint ptr %23 to i64
  %26 = sub i64 %24, %25
  %27 = trunc i64 %26 to i32
  %28 = getelementptr inbounds [75 x i8], ptr %8, i64 0, i64 0
  %29 = call i32 @color_parse_mem(ptr noundef %21, i32 noundef %27, ptr noundef %28)
  %30 = icmp ne i32 %29, 0
  br i1 %30, label %35, label %31

31:                                               ; preds = %18
  %32 = load ptr, ptr %3, align 8, !tbaa !99
  %33 = getelementptr inbounds [75 x i8], ptr %8, i64 0, i64 0
  %34 = call ptr @strvec_push(ptr noundef %32, ptr noundef %33)
  br label %44

35:                                               ; preds = %18
  %36 = call ptr @_(ptr noundef @.str.1)
  %37 = load ptr, ptr %7, align 8, !tbaa !74
  %38 = load ptr, ptr %6, align 8, !tbaa !74
  %39 = ptrtoint ptr %37 to i64
  %40 = ptrtoint ptr %38 to i64
  %41 = sub i64 %39, %40
  %42 = trunc i64 %41 to i32
  %43 = load ptr, ptr %6, align 8, !tbaa !74
  call void (ptr, ...) @warning(ptr noundef %36, i32 noundef %42, ptr noundef %43)
  br label %44

44:                                               ; preds = %35, %31
  %45 = load ptr, ptr %7, align 8, !tbaa !74
  %46 = getelementptr inbounds i8, ptr %45, i64 1
  store ptr %46, ptr %6, align 8, !tbaa !74
  call void @llvm.lifetime.end.p0(i64 75, ptr %8) #8
  call void @llvm.lifetime.end.p0(i64 8, ptr %7) #8
  br label %14, !llvm.loop !101

47:                                               ; preds = %14
  %48 = load ptr, ptr %3, align 8, !tbaa !99
  %49 = call ptr @strvec_push(ptr noundef %48, ptr noundef @.str.2)
  call void @llvm.lifetime.end.p0(i64 8, ptr %6) #8
  call void @llvm.lifetime.end.p0(i64 8, ptr %5) #8
  ret void
}

; Function Attrs: nounwind uwtable
define dso_local void @graph_set_column_colors(ptr noundef %0, i16 noundef zeroext %1) #0 {
  %3 = alloca ptr, align 8
  %4 = alloca i16, align 2
  store ptr %0, ptr %3, align 8, !tbaa !4
  store i16 %1, ptr %4, align 2, !tbaa !9
  %5 = load ptr, ptr %3, align 8, !tbaa !4
  store ptr %5, ptr @column_colors, align 8, !tbaa !4
  %6 = load i16, ptr %4, align 2, !tbaa !9
  store i16 %6, ptr @column_colors_max, align 2, !tbaa !9
  ret void
}

; Function Attrs: nounwind uwtable
define dso_local ptr @graph_init(ptr noundef %0) #0 {
  %2 = alloca ptr, align 8
  %3 = alloca ptr, align 8
  %4 = alloca ptr, align 8
  store ptr %0, ptr %2, align 8, !tbaa !38
  call void @llvm.lifetime.start.p0(i64 8, ptr %3) #8
  %5 = call ptr @xmalloc(i64 noundef 136)
  store ptr %5, ptr %3, align 8, !tbaa !28
  %6 = load ptr, ptr @column_colors, align 8, !tbaa !4
  %7 = icmp ne ptr %6, null
  br i1 %7, label %25, label %8

8:                                                ; preds = %1
  call void @llvm.lifetime.start.p0(i64 8, ptr %4) #8
  %9 = load ptr, ptr %2, align 8, !tbaa !38
  %10 = getelementptr inbounds nuw %struct.rev_info, ptr %9, i32 0, i32 2
  %11 = load ptr, ptr %10, align 8, !tbaa !39
  %12 = call i32 @repo_config_get_string(ptr noundef %11, ptr noundef @.str, ptr noundef %4)
  %13 = icmp ne i32 %12, 0
  br i1 %13, label %14, label %17

14:                                               ; preds = %8
  %15 = load i32, ptr @column_colors_ansi_max, align 4, !tbaa !73
  %16 = trunc i32 %15 to i16
  call void @graph_set_column_colors(ptr noundef @column_colors_ansi, i16 noundef zeroext %16)
  br label %24

17:                                               ; preds = %8
  call void @strvec_clear(ptr noundef @graph_init.custom_colors)
  %18 = load ptr, ptr %4, align 8, !tbaa !74
  call void @parse_graph_colors_config(ptr noundef @graph_init.custom_colors, ptr noundef %18)
  %19 = load ptr, ptr %4, align 8, !tbaa !74
  call void @free(ptr noundef %19) #8
  %20 = load ptr, ptr @graph_init.custom_colors, align 8, !tbaa !75
  %21 = load i64, ptr getelementptr inbounds nuw (%struct.strvec, ptr @graph_init.custom_colors, i32 0, i32 1), align 8, !tbaa !76
  %22 = sub i64 %21, 1
  %23 = trunc i64 %22 to i16
  call void @graph_set_column_colors(ptr noundef %20, i16 noundef zeroext %23)
  br label %24

24:                                               ; preds = %17, %14
  call void @llvm.lifetime.end.p0(i64 8, ptr %4) #8
  br label %25

25:                                               ; preds = %24, %1
  %26 = load ptr, ptr %3, align 8, !tbaa !28
  %27 = getelementptr inbounds nuw %struct.git_graph, ptr %26, i32 0, i32 0
  store ptr null, ptr %27, align 8, !tbaa !77
  %28 = load ptr, ptr %2, align 8, !tbaa !38
  %29 = load ptr, ptr %3, align 8, !tbaa !28
  %30 = getelementptr inbounds nuw %struct.git_graph, ptr %29, i32 0, i32 1
  store ptr %28, ptr %30, align 8, !tbaa !78
  %31 = load ptr, ptr %3, align 8, !tbaa !28
  %32 = getelementptr inbounds nuw %struct.git_graph, ptr %31, i32 0, i32 2
  store i32 0, ptr %32, align 8, !tbaa !79
  %33 = load ptr, ptr %3, align 8, !tbaa !28
  %34 = getelementptr inbounds nuw %struct.git_graph, ptr %33, i32 0, i32 4
  store i32 0, ptr %34, align 8, !tbaa !80
  %35 = load ptr, ptr %3, align 8, !tbaa !28
  %36 = getelementptr inbounds nuw %struct.git_graph, ptr %35, i32 0, i32 5
  store i32 0, ptr %36, align 4, !tbaa !81
  %37 = load ptr, ptr %3, align 8, !tbaa !28
  %38 = getelementptr inbounds nuw %struct.git_graph, ptr %37, i32 0, i32 6
  store i32 0, ptr %38, align 8, !tbaa !82
  %39 = load ptr, ptr %3, align 8, !tbaa !28
  %40 = getelementptr inbounds nuw %struct.git_graph, ptr %39, i32 0, i32 7
  store i32 0, ptr %40, align 4, !tbaa !83
  %41 = load ptr, ptr %3, align 8, !tbaa !28
  %42 = getelementptr inbounds nuw %struct.git_graph, ptr %41, i32 0, i32 8
  store i32 0, ptr %42, align 8, !tbaa !84
  %43 = load ptr, ptr %3, align 8, !tbaa !28
  %44 = getelementptr inbounds nuw %struct.git_graph, ptr %43, i32 0, i32 9
  store i32 0, ptr %44, align 4, !tbaa !85
  %45 = load ptr, ptr %3, align 8, !tbaa !28
  %46 = getelementptr inbounds nuw %struct.git_graph, ptr %45, i32 0, i32 10
  store i32 0, ptr %46, align 8, !tbaa !86
  %47 = load ptr, ptr %3, align 8, !tbaa !28
  %48 = getelementptr inbounds nuw %struct.git_graph, ptr %47, i32 0, i32 11
  store i32 0, ptr %48, align 4, !tbaa !87
  %49 = load ptr, ptr %3, align 8, !tbaa !28
  %50 = getelementptr inbounds nuw %struct.git_graph, ptr %49, i32 0, i32 13
  store i32 0, ptr %50, align 4, !tbaa !88
  %51 = load ptr, ptr %3, align 8, !tbaa !28
  %52 = getelementptr inbounds nuw %struct.git_graph, ptr %51, i32 0, i32 14
  store i32 0, ptr %52, align 8, !tbaa !89
  %53 = load ptr, ptr %3, align 8, !tbaa !28
  %54 = getelementptr inbounds nuw %struct.git_graph, ptr %53, i32 0, i32 15
  store i32 0, ptr %54, align 4, !tbaa !90
  %55 = load i16, ptr @column_colors_max, align 2, !tbaa !9
  %56 = zext i16 %55 to i32
  %57 = sub nsw i32 %56, 1
  %58 = trunc i32 %57 to i16
  %59 = load ptr, ptr %3, align 8, !tbaa !28
  %60 = getelementptr inbounds nuw %struct.git_graph, ptr %59, i32 0, i32 20
  store i16 %58, ptr %60, align 8, !tbaa !91
  %61 = load ptr, ptr %3, align 8, !tbaa !28
  %62 = getelementptr inbounds nuw %struct.git_graph, ptr %61, i32 0, i32 12
  store i32 30, ptr %62, align 8, !tbaa !92
  %63 = load ptr, ptr %3, align 8, !tbaa !28
  %64 = getelementptr inbounds nuw %struct.git_graph, ptr %63, i32 0, i32 12
  %65 = load i32, ptr %64, align 8, !tbaa !92
  %66 = sext i32 %65 to i64
  %67 = call i64 @st_mult(i64 noundef 16, i64 noundef %66)
  %68 = call ptr @xmalloc(i64 noundef %67)
  %69 = load ptr, ptr %3, align 8, !tbaa !28
  %70 = getelementptr inbounds nuw %struct.git_graph, ptr %69, i32 0, i32 16
  store ptr %68, ptr %70, align 8, !tbaa !93
  %71 = load ptr, ptr %3, align 8, !tbaa !28
  %72 = getelementptr inbounds nuw %struct.git_graph, ptr %71, i32 0, i32 12
  %73 = load i32, ptr %72, align 8, !tbaa !92
  %74 = sext i32 %73 to i64
  %75 = call i64 @st_mult(i64 noundef 16, i64 noundef %74)
  %76 = call ptr @xmalloc(i64 noundef %75)
  %77 = load ptr, ptr %3, align 8, !tbaa !28
  %78 = getelementptr inbounds nuw %struct.git_graph, ptr %77, i32 0, i32 17
  store ptr %76, ptr %78, align 8, !tbaa !94
  %79 = load ptr, ptr %3, align 8, !tbaa !28
  %80 = getelementptr inbounds nuw %struct.git_graph, ptr %79, i32 0, i32 12
  %81 = load i32, ptr %80, align 8, !tbaa !92
  %82 = mul nsw i32 2, %81
  %83 = sext i32 %82 to i64
  %84 = call i64 @st_mult(i64 noundef 4, i64 noundef %83)
  %85 = call ptr @xmalloc(i64 noundef %84)
  %86 = load ptr, ptr %3, align 8, !tbaa !28
  %87 = getelementptr inbounds nuw %struct.git_graph, ptr %86, i32 0, i32 18
  store ptr %85, ptr %87, align 8, !tbaa !95
  %88 = load ptr, ptr %3, align 8, !tbaa !28
  %89 = getelementptr inbounds nuw %struct.git_graph, ptr %88, i32 0, i32 12
  %90 = load i32, ptr %89, align 8, !tbaa !92
  %91 = mul nsw i32 2, %90
  %92 = sext i32 %91 to i64
  %93 = call i64 @st_mult(i64 noundef 4, i64 noundef %92)
  %94 = call ptr @xmalloc(i64 noundef %93)
  %95 = load ptr, ptr %3, align 8, !tbaa !28
  %96 = getelementptr inbounds nuw %struct.git_graph, ptr %95, i32 0, i32 19
  store ptr %94, ptr %96, align 8, !tbaa !96
  %97 = load ptr, ptr %3, align 8, !tbaa !28
  %98 = getelementptr inbounds nuw %struct.git_graph, ptr %97, i32 0, i32 21
  call void @strbuf_init(ptr noundef %98, i64 noundef 0)
  %99 = load ptr, ptr %2, align 8, !tbaa !38
  %100 = getelementptr inbounds nuw %struct.rev_info, ptr %99, i32 0, i32 53
  %101 = getelementptr inbounds nuw %struct.diff_options, ptr %100, i32 0, i32 65
  store ptr @diff_output_prefix_callback, ptr %101, align 8, !tbaa !97
  %102 = load ptr, ptr %3, align 8, !tbaa !28
  %103 = load ptr, ptr %2, align 8, !tbaa !38
  %104 = getelementptr inbounds nuw %struct.rev_info, ptr %103, i32 0, i32 53
  %105 = getelementptr inbounds nuw %struct.diff_options, ptr %104, i32 0, i32 66
  store ptr %102, ptr %105, align 8, !tbaa !98
  %106 = load ptr, ptr %3, align 8, !tbaa !28
  call void @llvm.lifetime.end.p0(i64 8, ptr %3) #8
  ret ptr %106
}