; Function Attrs: nounwind uwtable
define dso_local ptr @graph_init(ptr noundef %0) local_unnamed_addr #2 {
  %2 = alloca [75 x i8], align 16
  %3 = alloca ptr, align 8
  %4 = tail call ptr @xmalloc(i64 noundef 136) #15
  %5 = load ptr, ptr @column_colors, align 8, !tbaa !4
  %.not = icmp eq ptr %5, null
  br i1 %.not, label %6, label %._crit_edge

._crit_edge:                                      ; preds = %1
  %.pre = load i16, ptr @column_colors_max, align 2, !tbaa !9
  br label %39

6:                                                ; preds = %1
  call void @llvm.lifetime.start.p0(i64 8, ptr nonnull %3) #15
  %7 = getelementptr inbounds nuw i8, ptr %0, i64 24
  %8 = load ptr, ptr %7, align 8, !tbaa !33
  %9 = call i32 @repo_config_get_string(ptr noundef %8, ptr noundef nonnull @.str, ptr noundef nonnull %3) #15
  %.not31 = icmp eq i32 %9, 0
  br i1 %.not31, label %13, label %10

10:                                               ; preds = %6
  %11 = load i32, ptr @column_colors_ansi_max, align 4, !tbaa !69
  %12 = trunc i32 %11 to i16
  br label %38

13:                                               ; preds = %6
  call void @strvec_clear(ptr noundef nonnull @graph_init.custom_colors) #15
  %14 = load ptr, ptr %3, align 8, !tbaa !32
  %15 = call i64 @strlen(ptr noundef nonnull dereferenceable(1) %14) #14
  %16 = getelementptr inbounds nuw i8, ptr %14, i64 %15
  %.not2.i = icmp eq i64 %15, 0
  br i1 %.not2.i, label %parse_graph_colors_config.exit, label %.lr.ph.i

.lr.ph.i:                                         ; preds = %13, %29
  %.01.i = phi ptr [ %30, %29 ], [ %14, %13 ]
  %17 = call ptr @strchrnul(ptr noundef nonnull %.01.i, i32 noundef 44) #14
  call void @llvm.lifetime.start.p0(i64 75, ptr nonnull %2) #15
  %18 = ptrtoint ptr %17 to i64
  %19 = ptrtoint ptr %.01.i to i64
  %20 = sub i64 %18, %19
  %21 = trunc i64 %20 to i32
  %22 = call i32 @color_parse_mem(ptr noundef nonnull %.01.i, i32 noundef %21, ptr noundef nonnull %2) #15
  %.not.i = icmp eq i32 %22, 0
  br i1 %.not.i, label %23, label %25

23:                                               ; preds = %.lr.ph.i
  %24 = call ptr @strvec_push(ptr noundef nonnull @graph_init.custom_colors, ptr noundef nonnull %2) #15
  br label %29

25:                                               ; preds = %.lr.ph.i
  %26 = load i32, ptr @git_gettext_enabled, align 4, !tbaa !69
  %.not.i.i = icmp eq i32 %26, 0
  br i1 %.not.i.i, label %_.exit.i, label %27

27:                                               ; preds = %25
  %28 = call ptr @dcgettext(ptr noundef null, ptr noundef nonnull @.str.1, i32 noundef 5) #15
  br label %_.exit.i

_.exit.i:                                         ; preds = %27, %25
  %.0.i.i = phi ptr [ %28, %27 ], [ @.str.1, %25 ]
  call void (ptr, ...) @warning(ptr noundef %.0.i.i, i32 noundef %21, ptr noundef nonnull %.01.i) #15
  br label %29

29:                                               ; preds = %_.exit.i, %23
  %30 = getelementptr inbounds nuw i8, ptr %17, i64 1
  call void @llvm.lifetime.end.p0(i64 75, ptr nonnull %2) #15
  %31 = icmp ult ptr %30, %16
  br i1 %31, label %.lr.ph.i, label %parse_graph_colors_config.exit, !llvm.loop !70

parse_graph_colors_config.exit:                   ; preds = %29, %13
  %32 = call ptr @strvec_push(ptr noundef nonnull @graph_init.custom_colors, ptr noundef nonnull @.str.2) #15
  %33 = load ptr, ptr %3, align 8, !tbaa !32
  call void @free(ptr noundef %33) #15
  %34 = load ptr, ptr @graph_init.custom_colors, align 8, !tbaa !72
  %35 = load i64, ptr getelementptr inbounds nuw (i8, ptr @graph_init.custom_colors, i64 8), align 8, !tbaa !73
  %36 = trunc i64 %35 to i16
  %37 = add i16 %36, -1
  br label %38

38:                                               ; preds = %parse_graph_colors_config.exit, %10
  %storemerge38 = phi ptr [ @column_colors_ansi, %10 ], [ %34, %parse_graph_colors_config.exit ]
  %storemerge = phi i16 [ %12, %10 ], [ %37, %parse_graph_colors_config.exit ]
  store ptr %storemerge38, ptr @column_colors, align 8, !tbaa !4
  store i16 %storemerge, ptr @column_colors_max, align 2, !tbaa !9
  call void @llvm.lifetime.end.p0(i64 8, ptr nonnull %3) #15
  br label %39

39:                                               ; preds = %._crit_edge, %38
  %40 = phi i16 [ %.pre, %._crit_edge ], [ %storemerge, %38 ]
  store ptr null, ptr %4, align 8, !tbaa !74
  %41 = getelementptr inbounds nuw i8, ptr %4, i64 8
  store ptr %0, ptr %41, align 8, !tbaa !79
  %42 = getelementptr inbounds nuw i8, ptr %4, i64 16
  store i32 0, ptr %42, align 8, !tbaa !80
  %43 = getelementptr inbounds nuw i8, ptr %4, i64 24
  %44 = getelementptr inbounds nuw i8, ptr %4, i64 60
  store i32 0, ptr %44, align 4, !tbaa !81
  %45 = getelementptr inbounds nuw i8, ptr %4, i64 64
  store i32 0, ptr %45, align 8, !tbaa !82
  %46 = getelementptr inbounds nuw i8, ptr %4, i64 68
  store i32 0, ptr %46, align 4, !tbaa !83
  %47 = add i16 %40, -1
  %48 = getelementptr inbounds nuw i8, ptr %4, i64 104
  call void @llvm.memset.p0.i64(ptr noundef nonnull align 8 dereferenceable(32) %43, i8 0, i64 32, i1 false)
  store i16 %47, ptr %48, align 8, !tbaa !84
  %49 = getelementptr inbounds nuw i8, ptr %4, i64 56
  store i32 30, ptr %49, align 8, !tbaa !85
  %50 = call ptr @xmalloc(i64 noundef 480) #15
  %51 = getelementptr inbounds nuw i8, ptr %4, i64 72
  store ptr %50, ptr %51, align 8, !tbaa !86
  %52 = load i32, ptr %49, align 8, !tbaa !85
  %53 = sext i32 %52 to i64
  %mul.ov.i = icmp slt i32 %52, 0
  br i1 %mul.ov.i, label %54, label %st_mult.exit

54:                                               ; preds = %39
  call void (ptr, ...) @die(ptr noundef nonnull @.str.4, i64 noundef 16, i64 noundef range(i64 -2147483648, 2147483648) %53) #16
  unreachable

st_mult.exit:                                     ; preds = %39
  %55 = shl nuw nsw i64 %53, 4
  %56 = call ptr @xmalloc(i64 noundef %55) #15
  %57 = getelementptr inbounds nuw i8, ptr %4, i64 80
  store ptr %56, ptr %57, align 8, !tbaa !87
  %58 = load i32, ptr %49, align 8, !tbaa !85
  %59 = shl nsw i32 %58, 1
  %60 = sext i32 %59 to i64
  %mul.ov.i33 = icmp slt i32 %58, 0
  br i1 %mul.ov.i33, label %61, label %st_mult.exit34

61:                                               ; preds = %st_mult.exit
  call void (ptr, ...) @die(ptr noundef nonnull @.str.4, i64 noundef 4, i64 noundef range(i64 -2147483648, 2147483648) %60) #16
  unreachable

st_mult.exit34:                                   ; preds = %st_mult.exit
  %62 = shl nuw nsw i64 %60, 2
  %63 = call ptr @xmalloc(i64 noundef %62) #15
  %64 = getelementptr inbounds nuw i8, ptr %4, i64 88
  store ptr %63, ptr %64, align 8, !tbaa !88
  %65 = load i32, ptr %49, align 8, !tbaa !85
  %66 = shl nsw i32 %65, 1
  %67 = sext i32 %66 to i64
  %mul.ov.i36 = icmp slt i32 %65, 0
  br i1 %mul.ov.i36, label %68, label %st_mult.exit37

68:                                               ; preds = %st_mult.exit34
  call void (ptr, ...) @die(ptr noundef nonnull @.str.4, i64 noundef 4, i64 noundef range(i64 -2147483648, 2147483648) %67) #16
  unreachable

st_mult.exit37:                                   ; preds = %st_mult.exit34
  %69 = shl nuw nsw i64 %67, 2
  %70 = call ptr @xmalloc(i64 noundef %69) #15
  %71 = getelementptr inbounds nuw i8, ptr %4, i64 96
  store ptr %70, ptr %71, align 8, !tbaa !89
  %72 = getelementptr inbounds nuw i8, ptr %4, i64 112
  call void @strbuf_init(ptr noundef nonnull %72, i64 noundef 0) #15
  %73 = getelementptr inbounds nuw i8, ptr %0, i64 2000
  store ptr @diff_output_prefix_callback, ptr %73, align 8, !tbaa !90
  %74 = getelementptr inbounds nuw i8, ptr %0, i64 2008
  store ptr %4, ptr %74, align 8, !tbaa !91
  ret ptr %4
}